target datalayout = "e-m:e-p270:32:32-p271:32:32-p272:64:64-i64:64-i128:128-f80:128-n8:16:32:64-S128"
target triple = "x86_64-pc-linux-gnu"

%struct.dictType = type { ptr, ptr, ptr, ptr, ptr, ptr, ptr, ptr, ptr, ptr, ptr, i8, ptr, ptr, ptr }
%struct.dict = type { ptr, [2 x ptr], [2 x i64], i64, i16, [2 x i8], i16, [0 x ptr] }

@dict_can_resize = internal global i32 0, align 4
@dict_force_resize_ratio = internal global i32 4, align 4

; Function Attrs: nounwind uwtable
define internal signext i8 @_dictNextExp(i64 noundef %0) #0 {
  %2 = alloca i8, align 1
  %3 = alloca i64, align 8
  store i64 %0, ptr %3, align 8, !tbaa !11
  %4 = load i64, ptr %3, align 8, !tbaa !11
  %5 = icmp ule i64 %4, 4
  br i1 %5, label %6, label %7

6:                                                ; preds = %1
  store i8 2, ptr %2, align 1
  br label %19

7:                                                ; preds = %1
  %8 = load i64, ptr %3, align 8, !tbaa !11
  %9 = icmp uge i64 %8, 9223372036854775807
  br i1 %9, label %10, label %11

10:                                               ; preds = %7
  store i8 63, ptr %2, align 1
  br label %19

11:                                               ; preds = %7
  %12 = load i64, ptr %3, align 8, !tbaa !11
  %13 = sub i64 %12, 1
  %14 = call i64 @llvm.ctlz.i64(i64 %13, i1 true)
  %15 = trunc i64 %14 to i32
  %16 = sext i32 %15 to i64
  %17 = sub i64 64, %16
  %18 = trunc i64 %17 to i8
  store i8 %18, ptr %2, align 1
  br label %19

19:                                               ; preds = %11, %10, %6
  %20 = load i8, ptr %2, align 1
  ret i8 %20
}

; Function Attrs: nounwind uwtable
define dso_local i32 @_dictExpand(ptr noundef %0, i64 noundef %1, ptr noundef %2) #0 {
  %4 = alloca i32, align 4
  %5 = alloca ptr, align 8
  %6 = alloca i64, align 8
  %7 = alloca ptr, align 8
  store ptr %0, ptr %5, align 8, !tbaa !18
  store i64 %1, ptr %6, align 8, !tbaa !11
  store ptr %2, ptr %7, align 8, !tbaa !27
  %8 = load ptr, ptr %5, align 8, !tbaa !18
  %9 = getelementptr inbounds nuw %struct.dict, ptr %8, i32 0, i32 3
  %10 = load i64, ptr %9, align 8, !tbaa !11
  %11 = icmp ne i64 %10, -1
  br i1 %11, label %39, label %12

12:                                               ; preds = %3
  %13 = load ptr, ptr %5, align 8, !tbaa !18
  %14 = getelementptr inbounds nuw %struct.dict, ptr %13, i32 0, i32 2
  %15 = getelementptr inbounds [2 x i64], ptr %14, i64 0, i64 0
  %16 = load i64, ptr %15, align 8, !tbaa !11
  %17 = load i64, ptr %6, align 8, !tbaa !11
  %18 = icmp ugt i64 %16, %17
  br i1 %18, label %39, label %19

19:                                               ; preds = %12
  %20 = load ptr, ptr %5, align 8, !tbaa !18
  %21 = getelementptr inbounds nuw %struct.dict, ptr %20, i32 0, i32 5
  %22 = getelementptr inbounds [2 x i8], ptr %21, i64 0, i64 0
  %23 = load i8, ptr %22, align 2, !tbaa !25
  %24 = sext i8 %23 to i32
  %25 = icmp eq i32 %24, -1
  br i1 %25, label %26, label %27

26:                                               ; preds = %19
  br label %35

27:                                               ; preds = %19
  %28 = load ptr, ptr %5, align 8, !tbaa !18
  %29 = getelementptr inbounds nuw %struct.dict, ptr %28, i32 0, i32 5
  %30 = getelementptr inbounds [2 x i8], ptr %29, i64 0, i64 0
  %31 = load i8, ptr %30, align 2, !tbaa !25
  %32 = sext i8 %31 to i32
  %33 = zext i32 %32 to i64
  %34 = shl i64 1, %33
  br label %35

35:                                               ; preds = %27, %26
  %36 = phi i64 [ 0, %26 ], [ %34, %27 ]
  %37 = load i64, ptr %6, align 8, !tbaa !11
  %38 = icmp uge i64 %36, %37
  br i1 %38, label %39, label %40

39:                                               ; preds = %35, %12, %3
  store i32 1, ptr %4, align 4
  br label %45

40:                                               ; preds = %35
  %41 = load ptr, ptr %5, align 8, !tbaa !18
  %42 = load i64, ptr %6, align 8, !tbaa !11
  %43 = load ptr, ptr %7, align 8, !tbaa !27
  %44 = call i32 @_dictResize(ptr noundef %41, i64 noundef %42, ptr noundef %43)
  store i32 %44, ptr %4, align 4
  br label %45

45:                                               ; preds = %40, %39
  %46 = load i32, ptr %4, align 4
  ret i32 %46
}

; Function Attrs: nounwind uwtable
define internal i32 @dictTypeResizeAllowed(ptr noundef %0, i64 noundef %1) #0 {
  %3 = alloca i32, align 4
  %4 = alloca ptr, align 8
  %5 = alloca i64, align 8
  store ptr %0, ptr %4, align 8, !tbaa !18
  store i64 %1, ptr %5, align 8, !tbaa !11
  %6 = load ptr, ptr %4, align 8, !tbaa !18
  %7 = getelementptr inbounds nuw %struct.dict, ptr %6, i32 0, i32 0
  %8 = load ptr, ptr %7, align 8, !tbaa !13
  %9 = getelementptr inbounds nuw %struct.dictType, ptr %8, i32 0, i32 6
  %10 = load ptr, ptr %9, align 8, !tbaa !106
  %11 = icmp eq ptr %10, null
  br i1 %11, label %12, label %13

12:                                               ; preds = %2
  store i32 1, ptr %3, align 4
  br label %58

13:                                               ; preds = %2
  %14 = load ptr, ptr %4, align 8, !tbaa !18
  %15 = getelementptr inbounds nuw %struct.dict, ptr %14, i32 0, i32 0
  %16 = load ptr, ptr %15, align 8, !tbaa !13
  %17 = getelementptr inbounds nuw %struct.dictType, ptr %16, i32 0, i32 6
  %18 = load ptr, ptr %17, align 8, !tbaa !106
  %19 = load i64, ptr %5, align 8, !tbaa !11
  %20 = call signext i8 @_dictNextExp(i64 noundef %19)
  %21 = sext i8 %20 to i32
  %22 = icmp eq i32 %21, -1
  br i1 %22, label %23, label %24

23:                                               ; preds = %13
  br label %30

24:                                               ; preds = %13
  %25 = load i64, ptr %5, align 8, !tbaa !11
  %26 = call signext i8 @_dictNextExp(i64 noundef %25)
  %27 = sext i8 %26 to i32
  %28 = zext i32 %27 to i64
  %29 = shl i64 1, %28
  br label %30

30:                                               ; preds = %24, %23
  %31 = phi i64 [ 0, %23 ], [ %29, %24 ]
  %32 = mul i64 %31, 8
  %33 = load ptr, ptr %4, align 8, !tbaa !18
  %34 = getelementptr inbounds nuw %struct.dict, ptr %33, i32 0, i32 2
  %35 = getelementptr inbounds [2 x i64], ptr %34, i64 0, i64 0
  %36 = load i64, ptr %35, align 8, !tbaa !11
  %37 = uitofp i64 %36 to double
  %38 = load ptr, ptr %4, align 8, !tbaa !18
  %39 = getelementptr inbounds nuw %struct.dict, ptr %38, i32 0, i32 5
  %40 = getelementptr inbounds [2 x i8], ptr %39, i64 0, i64 0
  %41 = load i8, ptr %40, align 2, !tbaa !25
  %42 = sext i8 %41 to i32
  %43 = icmp eq i32 %42, -1
  br i1 %43, label %44, label %45

44:                                               ; preds = %30
  br label %53

45:                                               ; preds = %30
  %46 = load ptr, ptr %4, align 8, !tbaa !18
  %47 = getelementptr inbounds nuw %struct.dict, ptr %46, i32 0, i32 5
  %48 = getelementptr inbounds [2 x i8], ptr %47, i64 0, i64 0
  %49 = load i8, ptr %48, align 2, !tbaa !25
  %50 = sext i8 %49 to i32
  %51 = zext i32 %50 to i64
  %52 = shl i64 1, %51
  br label %53

53:                                               ; preds = %45, %44
  %54 = phi i64 [ 0, %44 ], [ %52, %45 ]
  %55 = uitofp i64 %54 to double
  %56 = fdiv double %37, %55
  %57 = call i32 %18(i64 noundef %32, double noundef %56)
  store i32 %57, ptr %3, align 4
  br label %58

58:                                               ; preds = %53, %12
  %59 = load i32, ptr %3, align 4
  ret i32 %59
}

; Function Attrs: nounwind uwtable
define dso_local i32 @dictExpand(ptr noundef %0, i64 noundef %1) #0 {
  %3 = alloca ptr, align 8
  %4 = alloca i64, align 8
  store ptr %0, ptr %3, align 8, !tbaa !18
  store i64 %1, ptr %4, align 8, !tbaa !11
  %5 = load ptr, ptr %3, align 8, !tbaa !18
  %6 = load i64, ptr %4, align 8, !tbaa !11
  %7 = call i32 @_dictExpand(ptr noundef %5, i64 noundef %6, ptr noundef null)
  ret i32 %7
}

; Function Attrs: nounwind uwtable
define dso_local i32 @dictExpandIfNeeded(ptr noundef %0) #0 {
  %2 = alloca i32, align 4
  %3 = alloca ptr, align 8
  store ptr %0, ptr %3, align 8, !tbaa !18
  %4 = load ptr, ptr %3, align 8, !tbaa !18
  %5 = getelementptr inbounds nuw %struct.dict, ptr %4, i32 0, i32 3
  %6 = load i64, ptr %5, align 8, !tbaa !11
  %7 = icmp ne i64 %6, -1
  br i1 %7, label %8, label %9

8:                                                ; preds = %1
  store i32 0, ptr %2, align 4
  br label %105

9:                                                ; preds = %1
  %10 = load ptr, ptr %3, align 8, !tbaa !18
  %11 = getelementptr inbounds nuw %struct.dict, ptr %10, i32 0, i32 5
  %12 = getelementptr inbounds [2 x i8], ptr %11, i64 0, i64 0
  %13 = load i8, ptr %12, align 2, !tbaa !25
  %14 = sext i8 %13 to i32
  %15 = icmp eq i32 %14, -1
  br i1 %15, label %16, label %17

16:                                               ; preds = %9
  br label %25

17:                                               ; preds = %9
  %18 = load ptr, ptr %3, align 8, !tbaa !18
  %19 = getelementptr inbounds nuw %struct.dict, ptr %18, i32 0, i32 5
  %20 = getelementptr inbounds [2 x i8], ptr %19, i64 0, i64 0
  %21 = load i8, ptr %20, align 2, !tbaa !25
  %22 = sext i8 %21 to i32
  %23 = zext i32 %22 to i64
  %24 = shl i64 1, %23
  br label %25

25:                                               ; preds = %17, %16
  %26 = phi i64 [ 0, %16 ], [ %24, %17 ]
  %27 = icmp eq i64 %26, 0
  br i1 %27, label %28, label %31

28:                                               ; preds = %25
  %29 = load ptr, ptr %3, align 8, !tbaa !18
  %30 = call i32 @dictExpand(ptr noundef %29, i64 noundef 4)
  store i32 0, ptr %2, align 4
  br label %105

31:                                               ; preds = %25
  %32 = load i32, ptr @dict_can_resize, align 4, !tbaa !29
  %33 = icmp eq i32 %32, 0
  br i1 %33, label %34, label %57

34:                                               ; preds = %31
  %35 = load ptr, ptr %3, align 8, !tbaa !18
  %36 = getelementptr inbounds nuw %struct.dict, ptr %35, i32 0, i32 2
  %37 = getelementptr inbounds [2 x i64], ptr %36, i64 0, i64 0
  %38 = load i64, ptr %37, align 8, !tbaa !11
  %39 = load ptr, ptr %3, align 8, !tbaa !18
  %40 = getelementptr inbounds nuw %struct.dict, ptr %39, i32 0, i32 5
  %41 = getelementptr inbounds [2 x i8], ptr %40, i64 0, i64 0
  %42 = load i8, ptr %41, align 2, !tbaa !25
  %43 = sext i8 %42 to i32
  %44 = icmp eq i32 %43, -1
  br i1 %44, label %45, label %46

45:                                               ; preds = %34
  br label %54

46:                                               ; preds = %34
  %47 = load ptr, ptr %3, align 8, !tbaa !18
  %48 = getelementptr inbounds nuw %struct.dict, ptr %47, i32 0, i32 5
  %49 = getelementptr inbounds [2 x i8], ptr %48, i64 0, i64 0
  %50 = load i8, ptr %49, align 2, !tbaa !25
  %51 = sext i8 %50 to i32
  %52 = zext i32 %51 to i64
  %53 = shl i64 1, %52
  br label %54

54:                                               ; preds = %46, %45
  %55 = phi i64 [ 0, %45 ], [ %53, %46 ]
  %56 = icmp uge i64 %38, %55
  br i1 %56, label %86, label %57

57:                                               ; preds = %54, %31
  %58 = load i32, ptr @dict_can_resize, align 4, !tbaa !29
  %59 = icmp ne i32 %58, 2
  br i1 %59, label %60, label %104

60:                                               ; preds = %57
  %61 = load ptr, ptr %3, align 8, !tbaa !18
  %62 = getelementptr inbounds nuw %struct.dict, ptr %61, i32 0, i32 2
  %63 = getelementptr inbounds [2 x i64], ptr %62, i64 0, i64 0
  %64 = load i64, ptr %63, align 8, !tbaa !11
  %65 = load i32, ptr @dict_force_resize_ratio, align 4, !tbaa !29
  %66 = zext i32 %65 to i64
  %67 = load ptr, ptr %3, align 8, !tbaa !18
  %68 = getelementptr inbounds nuw %struct.dict, ptr %67, i32 0, i32 5
  %69 = getelementptr inbounds [2 x i8], ptr %68, i64 0, i64 0
  %70 = load i8, ptr %69, align 2, !tbaa !25
  %71 = sext i8 %70 to i32
  %72 = icmp eq i32 %71, -1
  br i1 %72, label %73, label %74

73:                                               ; preds = %60
  br label %82

74:                                               ; preds = %60
  %75 = load ptr, ptr %3, align 8, !tbaa !18
  %76 = getelementptr inbounds nuw %struct.dict, ptr %75, i32 0, i32 5
  %77 = getelementptr inbounds [2 x i8], ptr %76, i64 0, i64 0
  %78 = load i8, ptr %77, align 2, !tbaa !25
  %79 = sext i8 %78 to i32
  %80 = zext i32 %79 to i64
  %81 = shl i64 1, %80
  br label %82

82:                                               ; preds = %74, %73
  %83 = phi i64 [ 0, %73 ], [ %81, %74 ]
  %84 = mul i64 %66, %83
  %85 = icmp uge i64 %64, %84
  br i1 %85, label %86, label %104

86:                                               ; preds = %82, %54
  %87 = load ptr, ptr %3, align 8, !tbaa !18
  %88 = load ptr, ptr %3, align 8, !tbaa !18
  %89 = getelementptr inbounds nuw %struct.dict, ptr %88, i32 0, i32 2
  %90 = getelementptr inbounds [2 x i64], ptr %89, i64 0, i64 0
  %91 = load i64, ptr %90, align 8, !tbaa !11
  %92 = add i64 %91, 1
  %93 = call i32 @dictTypeResizeAllowed(ptr noundef %87, i64 noundef %92)
  %94 = icmp ne i32 %93, 0
  br i1 %94, label %95, label %103

95:                                               ; preds = %86
  %96 = load ptr, ptr %3, align 8, !tbaa !18
  %97 = load ptr, ptr %3, align 8, !tbaa !18
  %98 = getelementptr inbounds nuw %struct.dict, ptr %97, i32 0, i32 2
  %99 = getelementptr inbounds [2 x i64], ptr %98, i64 0, i64 0
  %100 = load i64, ptr %99, align 8, !tbaa !11
  %101 = add i64 %100, 1
  %102 = call i32 @dictExpand(ptr noundef %96, i64 noundef %101)
  br label %103

103:                                              ; preds = %95, %86
  store i32 0, ptr %2, align 4
  br label %105

104:                                              ; preds = %82, %57
  store i32 1, ptr %2, align 4
  br label %105

105:                                              ; preds = %104, %103, %28, %8
  %106 = load i32, ptr %2, align 4
  ret i32 %106
}