; Function Attrs: nounwind uwtable
define dso_local range(i32 0, 2) i32 @dictExpandIfNeeded(ptr noundef %0) local_unnamed_addr #3 {
  %2 = getelementptr inbounds nuw i8, ptr %0, i64 40
  %3 = load i64, ptr %2, align 8, !tbaa !14
  %.not = icmp eq i64 %3, -1
  br i1 %.not, label %4, label %dictExpand.exit

4:                                                ; preds = %1
  %5 = getelementptr inbounds nuw i8, ptr %0, i64 50
  %6 = load i8, ptr %5, align 2, !tbaa !13
  %7 = icmp eq i8 %6, -1
  br i1 %7, label %8, label %12

8:                                                ; preds = %4
  %9 = getelementptr inbounds nuw i8, ptr %0, i64 24
  %10 = load i64, ptr %9, align 8, !tbaa !14
  %11 = icmp ugt i64 %10, 4
  br i1 %11, label %dictExpand.exit, label %dictExpand.exit.sink.split

12:                                               ; preds = %4
  %13 = load i32, ptr @dict_can_resize, align 4, !tbaa !26
  switch i32 %13, label %..thread_crit_edge [
    i32 0, label %14
    i32 2, label %dictExpand.exit
  ]

..thread_crit_edge:                               ; preds = %12
  %.phi.trans.insert = getelementptr inbounds nuw i8, ptr %0, i64 24
  %.pre = load i64, ptr %.phi.trans.insert, align 8, !tbaa !14
  %.pre30 = sext i8 %6 to i64
  %.pre31 = and i64 %.pre30, 4294967295
  br label %.thread

14:                                               ; preds = %12
  %15 = getelementptr inbounds nuw i8, ptr %0, i64 24
  %16 = load i64, ptr %15, align 8, !tbaa !14
  %17 = sext i8 %6 to i64
  %18 = and i64 %17, 4294967295
  %.highbits = lshr i64 %16, %18
  %.not17 = icmp eq i64 %.highbits, 0
  br i1 %.not17, label %.thread, label %21

.thread:                                          ; preds = %..thread_crit_edge, %14
  %.pre-phi32 = phi i64 [ %.pre31, %..thread_crit_edge ], [ %18, %14 ]
  %19 = phi i64 [ %.pre, %..thread_crit_edge ], [ %16, %14 ]
  %20 = shl i64 4, %.pre-phi32
  %.not19 = icmp ult i64 %19, %20
  br i1 %.not19, label %dictExpand.exit, label %21

21:                                               ; preds = %.thread, %14
  %22 = phi i64 [ %19, %.thread ], [ %16, %14 ]
  %23 = getelementptr inbounds nuw i8, ptr %0, i64 24
  %24 = add i64 %22, 1
  %25 = load ptr, ptr %0, align 8, !tbaa !16
  %26 = getelementptr inbounds nuw i8, ptr %25, i64 48
  %27 = load ptr, ptr %26, align 8, !tbaa !94
  %28 = icmp eq ptr %27, null
  br i1 %28, label %dictTypeResizeAllowed.exit.thread, label %29

29:                                               ; preds = %21
  %30 = icmp ult i64 %24, 5
  br i1 %30, label %dictTypeResizeAllowed.exit, label %31

31:                                               ; preds = %29
  %32 = icmp ugt i64 %24, 9223372036854775806
  br i1 %32, label %dictTypeResizeAllowed.exit, label %33

33:                                               ; preds = %31
  %34 = tail call range(i64 0, 65) i64 @llvm.ctlz.i64(i64 %22, i1 true)
  %35 = sub nuw nsw i64 64, %34
  br label %dictTypeResizeAllowed.exit

dictTypeResizeAllowed.exit:                       ; preds = %29, %31, %33
  %.0.i9.i = phi i64 [ %35, %33 ], [ 2, %29 ], [ 63, %31 ]
  %36 = shl i64 8, %.0.i9.i
  %37 = uitofp i64 %22 to double
  %38 = sext i8 %6 to i64
  %39 = and i64 %38, 4294967295
  %40 = shl nuw i64 1, %39
  %41 = uitofp i64 %40 to double
  %42 = fdiv double %37, %41
  %43 = tail call i32 %27(i64 noundef %36, double noundef %42) #25
  %.not20 = icmp eq i32 %43, 0
  br i1 %.not20, label %dictExpand.exit, label %dictTypeResizeAllowed.exit.dictTypeResizeAllowed.exit.thread_crit_edge

dictTypeResizeAllowed.exit.dictTypeResizeAllowed.exit.thread_crit_edge: ; preds = %dictTypeResizeAllowed.exit
  %.pre28 = load i64, ptr %23, align 8, !tbaa !14
  %.pre29 = load i64, ptr %2, align 8, !tbaa !14
  %.pre33 = add i64 %.pre28, 1
  %44 = icmp ne i64 %.pre29, -1
  br label %dictTypeResizeAllowed.exit.thread

dictTypeResizeAllowed.exit.thread:                ; preds = %dictTypeResizeAllowed.exit.dictTypeResizeAllowed.exit.thread_crit_edge, %21
  %.pre-phi34 = phi i64 [ %.pre33, %dictTypeResizeAllowed.exit.dictTypeResizeAllowed.exit.thread_crit_edge ], [ %24, %21 ]
  %.not.i.i21 = phi i1 [ %44, %dictTypeResizeAllowed.exit.dictTypeResizeAllowed.exit.thread_crit_edge ], [ false, %21 ]
  %45 = phi i64 [ %.pre28, %dictTypeResizeAllowed.exit.dictTypeResizeAllowed.exit.thread_crit_edge ], [ %22, %21 ]
  %46 = icmp eq i64 %45, -1
  %or.cond = select i1 %.not.i.i21, i1 true, i1 %46
  br i1 %or.cond, label %dictExpand.exit, label %47

47:                                               ; preds = %dictTypeResizeAllowed.exit.thread
  %48 = load i8, ptr %5, align 2, !tbaa !13
  %49 = icmp eq i8 %48, -1
  %50 = sext i8 %48 to i64
  %51 = and i64 %50, 4294967295
  %52 = shl nuw i64 1, %51
  %53 = select i1 %49, i64 0, i64 %52
  %.not11.i.i23 = icmp ult i64 %53, %.pre-phi34
  br i1 %.not11.i.i23, label %dictExpand.exit.sink.split, label %dictExpand.exit

dictExpand.exit.sink.split:                       ; preds = %47, %8
  %.pre-phi34.sink = phi i64 [ 4, %8 ], [ %.pre-phi34, %47 ]
  %54 = tail call i32 @_dictResize(ptr noundef nonnull %0, i64 noundef %.pre-phi34.sink, ptr noundef null)
  br label %dictExpand.exit

dictExpand.exit:                                  ; preds = %dictExpand.exit.sink.split, %12, %47, %dictTypeResizeAllowed.exit.thread, %8, %.thread, %dictTypeResizeAllowed.exit, %1
  %.0 = phi i32 [ 0, %1 ], [ 0, %dictTypeResizeAllowed.exit ], [ 1, %.thread ], [ 0, %8 ], [ 0, %dictTypeResizeAllowed.exit.thread ], [ 0, %47 ], [ 1, %12 ], [ 0, %dictExpand.exit.sink.split ]
  ret i32 %.0
}